target datalayout = "e-m:e-p270:32:32-p271:32:32-p272:64:64-i64:64-i128:128-f80:128-n8:16:32:64-S128"
target triple = "x86_64-pc-linux-gnu"

%class.NumberlikeArray = type { i32, i32, ptr }

; Function Attrs: mustprogress nounwind uwtable
define linkonce_odr noundef i64 @_ZNK11BigUnsigned8getBlockEj(ptr noundef nonnull align 8 dereferenceable(16) %0, i32 noundef %1) #1 comdat align 2 {
  %3 = alloca ptr, align 8
  %4 = alloca i32, align 4
  store ptr %0, ptr %3, align 8, !tbaa !6
  store i32 %1, ptr %4, align 4, !tbaa !21
  %5 = load ptr, ptr %3, align 8
  %6 = load i32, ptr %4, align 4, !tbaa !21
  %7 = getelementptr inbounds nuw %class.NumberlikeArray, ptr %5, i32 0, i32 1
  %8 = load i32, ptr %7, align 4, !tbaa !19
  %9 = icmp uge i32 %6, %8
  br i1 %9, label %10, label %11

10:                                               ; preds = %2
  br label %18

11:                                               ; preds = %2
  %12 = getelementptr inbounds nuw %class.NumberlikeArray, ptr %5, i32 0, i32 2
  %13 = load ptr, ptr %12, align 8, !tbaa !20
  %14 = load i32, ptr %4, align 4, !tbaa !21
  %15 = zext i32 %14 to i64
  %16 = getelementptr inbounds nuw i64, ptr %13, i64 %15
  %17 = load i64, ptr %16, align 8, !tbaa !11
  br label %18

18:                                               ; preds = %11, %10
  %19 = phi i64 [ 0, %10 ], [ %17, %11 ]
  ret i64 %19
}

; Function Attrs: mustprogress uwtable
define void @_ZN11BigUnsigned6setBitEjb(ptr noundef nonnull align 8 dereferenceable(16) %0, i32 noundef %1, i1 noundef zeroext %2) #0 align 2 {
  %4 = alloca ptr, align 8
  %5 = alloca i32, align 4
  %6 = alloca i8, align 1
  %7 = alloca i32, align 4
  %8 = alloca i64, align 8
  %9 = alloca i64, align 8
  store ptr %0, ptr %4, align 8, !tbaa !6
  store i32 %1, ptr %5, align 4, !tbaa !21
  %10 = zext i1 %2 to i8
  store i8 %10, ptr %6, align 1, !tbaa !32
  %11 = load ptr, ptr %4, align 8
  call void @llvm.lifetime.start.p0(i64 4, ptr %7) #7
  %12 = load i32, ptr %5, align 4, !tbaa !21
  %13 = udiv i32 %12, 64
  store i32 %13, ptr %7, align 4, !tbaa !21
  call void @llvm.lifetime.start.p0(i64 8, ptr %8) #7
  %14 = load i32, ptr %7, align 4, !tbaa !21
  %15 = call noundef i64 @_ZNK11BigUnsigned8getBlockEj(ptr noundef nonnull align 8 dereferenceable(16) %11, i32 noundef %14)
  store i64 %15, ptr %8, align 8, !tbaa !11
  call void @llvm.lifetime.start.p0(i64 8, ptr %9) #7
  %16 = load i32, ptr %5, align 4, !tbaa !21
  %17 = urem i32 %16, 64
  %18 = zext i32 %17 to i64
  %19 = shl i64 1, %18
  store i64 %19, ptr %9, align 8, !tbaa !11
  %20 = load i8, ptr %6, align 1, !tbaa !32, !range !34, !noundef !35
  %21 = trunc i8 %20 to i1
  br i1 %21, label %22, label %26

22:                                               ; preds = %3
  %23 = load i64, ptr %8, align 8, !tbaa !11
  %24 = load i64, ptr %9, align 8, !tbaa !11
  %25 = or i64 %23, %24
  br label %31

26:                                               ; preds = %3
  %27 = load i64, ptr %8, align 8, !tbaa !11
  %28 = load i64, ptr %9, align 8, !tbaa !11
  %29 = xor i64 %28, -1
  %30 = and i64 %27, %29
  br label %31

31:                                               ; preds = %26, %22
  %32 = phi i64 [ %25, %22 ], [ %30, %26 ]
  store i64 %32, ptr %8, align 8, !tbaa !11
  %33 = load i32, ptr %7, align 4, !tbaa !21
  %34 = load i64, ptr %8, align 8, !tbaa !11
  call void @_ZN11BigUnsigned8setBlockEjm(ptr noundef nonnull align 8 dereferenceable(16) %11, i32 noundef %33, i64 noundef %34)
  call void @llvm.lifetime.end.p0(i64 8, ptr %9) #7
  call void @llvm.lifetime.end.p0(i64 8, ptr %8) #7
  call void @llvm.lifetime.end.p0(i64 4, ptr %7) #7
  ret void
}