; Function Attrs: mustprogress uwtable
define void @_ZN11BigUnsigned6setBitEjb(ptr noundef nonnull align 8 captures(none) dereferenceable(16) %0, i32 noundef %1, i1 noundef zeroext %2) local_unnamed_addr #0 align 2 {
  %4 = lshr i32 %1, 6
  %5 = getelementptr inbounds nuw i8, ptr %0, i64 4
  %6 = load i32, ptr %5, align 4, !tbaa !14
  %.not.i = icmp ult i32 %4, %6
  br i1 %.not.i, label %7, label %_ZNK11BigUnsigned8getBlockEj.exit

7:                                                ; preds = %3
  %8 = getelementptr inbounds nuw i8, ptr %0, i64 8
  %9 = load ptr, ptr %8, align 8, !tbaa !13
  %10 = zext nneg i32 %4 to i64
  %11 = getelementptr inbounds nuw i64, ptr %9, i64 %10
  %12 = load i64, ptr %11, align 8, !tbaa !15
  br label %_ZNK11BigUnsigned8getBlockEj.exit

_ZNK11BigUnsigned8getBlockEj.exit:                ; preds = %3, %7
  %13 = phi i64 [ %12, %7 ], [ 0, %3 ]
  %14 = and i32 %1, 63
  %15 = zext nneg i32 %14 to i64
  %16 = shl nuw i64 1, %15
  %17 = or i64 %13, %16
  %18 = xor i64 %16, -1
  %19 = and i64 %13, %18
  %20 = select i1 %2, i64 %17, i64 %19
  tail call void @_ZN11BigUnsigned8setBlockEjm(ptr noundef nonnull align 8 dereferenceable(16) %0, i32 noundef %4, i64 noundef %20)
  ret void
}